; Function Attrs: nounwind uwtable
define noalias noundef ptr @Nwk_ManAlloc() local_unnamed_addr #0 {
  %calloc = tail call dereferenceable_or_null(128) ptr @calloc(i64 1, i64 128)
  %1 = tail call noalias dereferenceable_or_null(16) ptr @malloc(i64 noundef 16) #14
  %2 = getelementptr inbounds nuw i8, ptr %1, i64 4
  store i32 0, ptr %2, align 4, !tbaa !3
  store i32 1000, ptr %1, align 8, !tbaa !9
  %3 = tail call noalias dereferenceable_or_null(8000) ptr @malloc(i64 noundef 8000) #14
  %4 = getelementptr inbounds nuw i8, ptr %1, i64 8
  store ptr %3, ptr %4, align 8, !tbaa !10
  %5 = getelementptr inbounds nuw i8, ptr %calloc, i64 16
  store ptr %1, ptr %5, align 8, !tbaa !11
  %6 = tail call noalias dereferenceable_or_null(16) ptr @malloc(i64 noundef 16) #14
  %7 = getelementptr inbounds nuw i8, ptr %6, i64 4
  store i32 0, ptr %7, align 4, !tbaa !3
  store i32 1000, ptr %6, align 8, !tbaa !9
  %8 = tail call noalias dereferenceable_or_null(8000) ptr @malloc(i64 noundef 8000) #14
  %9 = getelementptr inbounds nuw i8, ptr %6, i64 8
  store ptr %8, ptr %9, align 8, !tbaa !10
  %10 = getelementptr inbounds nuw i8, ptr %calloc, i64 24
  store ptr %6, ptr %10, align 8, !tbaa !19
  %11 = tail call noalias dereferenceable_or_null(16) ptr @malloc(i64 noundef 16) #14
  %12 = getelementptr inbounds nuw i8, ptr %11, i64 4
  store i32 0, ptr %12, align 4, !tbaa !3
  store i32 1000, ptr %11, align 8, !tbaa !9
  %13 = tail call noalias dereferenceable_or_null(8000) ptr @malloc(i64 noundef 8000) #14
  %14 = getelementptr inbounds nuw i8, ptr %11, i64 8
  store ptr %13, ptr %14, align 8, !tbaa !10
  %15 = getelementptr inbounds nuw i8, ptr %calloc, i64 32
  store ptr %11, ptr %15, align 8, !tbaa !20
  %16 = tail call noalias dereferenceable_or_null(16) ptr @malloc(i64 noundef 16) #14
  %17 = getelementptr inbounds nuw i8, ptr %16, i64 4
  store i32 0, ptr %17, align 4, !tbaa !3
  store i32 1000, ptr %16, align 8, !tbaa !9
  %18 = tail call noalias dereferenceable_or_null(8000) ptr @malloc(i64 noundef 8000) #14
  %19 = getelementptr inbounds nuw i8, ptr %16, i64 8
  store ptr %18, ptr %19, align 8, !tbaa !10
  %20 = getelementptr inbounds nuw i8, ptr %calloc, i64 96
  store ptr %16, ptr %20, align 8, !tbaa !21
  %21 = getelementptr inbounds nuw i8, ptr %calloc, i64 60
  store i32 2, ptr %21, align 4, !tbaa !22
  %22 = tail call ptr (...) @Aig_MmFlexStart() #15
  %23 = getelementptr inbounds nuw i8, ptr %calloc, i64 88
  store ptr %22, ptr %23, align 8, !tbaa !23
  %24 = tail call ptr (...) @Hop_ManStart() #15
  %25 = getelementptr inbounds nuw i8, ptr %calloc, i64 64
  store ptr %24, ptr %25, align 8, !tbaa !24
  ret ptr %calloc
}